; Function Attrs: nofree nounwind memory(read, argmem: readwrite, inaccessiblemem: none) uwtable
define noundef i32 @cli_hm_scan_wild(ptr noundef readonly %0, ptr noundef writeonly %1, ptr noundef readonly %2, i32 noundef %3) local_unnamed_addr #6 {
  %5 = icmp ne ptr %0, null
  %6 = icmp ne ptr %2, null
  %or.cond = and i1 %5, %6
  br i1 %or.cond, label %7, label %hm_scan.exit

7:                                                ; preds = %4
  %8 = getelementptr inbounds i8, ptr %2, i64 160
  %9 = zext i32 %3 to i64
  %10 = getelementptr inbounds [3 x %struct.cli_sz_hash], ptr %8, i64 0, i64 %9
  %11 = getelementptr inbounds i8, ptr %10, i64 16
  %12 = load i32, ptr %11, align 8
  %.not = icmp eq i32 %12, 0
  br i1 %.not, label %hm_scan.exit, label %13

13:                                               ; preds = %7
  %14 = getelementptr inbounds [3 x i32], ptr @hashlen, i64 0, i64 %9
  %15 = load i32, ptr %14, align 4
  %16 = add i32 %12, -1
  %17 = zext i32 %16 to i64
  %18 = load ptr, ptr %10, align 8
  %19 = zext i32 %15 to i64
  %20 = load i32, ptr %0, align 4
  %21 = getelementptr inbounds i8, ptr %0, i64 4
  %22 = add i32 %15, -4
  %23 = zext i32 %22 to i64
  br label %24

24:                                               ; preds = %45, %13
  %.02444.i = phi i64 [ 0, %13 ], [ %.1.i, %45 ]
  %.02543.i = phi i64 [ %17, %13 ], [ %.126.i, %45 ]
  %25 = add nuw nsw i64 %.02543.i, %.02444.i
  %26 = lshr i64 %25, 1
  %27 = mul nuw i64 %26, %19
  %28 = getelementptr inbounds i8, ptr %18, i64 %27
  %29 = load i32, ptr %28, align 4
  %.not.i.i = icmp eq i32 %20, %29
  br i1 %.not.i.i, label %hm_cmp.exit.i, label %30

30:                                               ; preds = %24
  %31 = icmp ult i32 %20, %29
  br i1 %31, label %.thread.i, label %hm_cmp.exit.thread.i

hm_cmp.exit.i:                                    ; preds = %24
  %32 = getelementptr inbounds i8, ptr %28, i64 4
  %33 = tail call i32 @memcmp(ptr noundef nonnull %21, ptr noundef nonnull %32, i64 noundef %23) #8
  %34 = icmp slt i32 %33, 0
  br i1 %34, label %hm_cmp.exit.thread.i, label %37

hm_cmp.exit.thread.i:                             ; preds = %hm_cmp.exit.i, %30
  %.not36.i = icmp ult i64 %25, 2
  br i1 %.not36.i, label %hm_scan.exit, label %35

35:                                               ; preds = %hm_cmp.exit.thread.i
  %36 = add nsw i64 %26, -1
  br label %45

37:                                               ; preds = %hm_cmp.exit.i
  %.not34.i = icmp eq i32 %33, 0
  br i1 %.not34.i, label %39, label %.thread.i

.thread.i:                                        ; preds = %37, %30
  %38 = add nuw nsw i64 %26, 1
  br label %45

39:                                               ; preds = %37
  %.not35.i = icmp eq ptr %1, null
  br i1 %.not35.i, label %hm_scan.exit, label %40

40:                                               ; preds = %39
  %41 = getelementptr inbounds i8, ptr %10, i64 8
  %42 = load ptr, ptr %41, align 8
  %43 = getelementptr inbounds ptr, ptr %42, i64 %26
  %44 = load ptr, ptr %43, align 8
  store ptr %44, ptr %1, align 8
  br label %hm_scan.exit

45:                                               ; preds = %.thread.i, %35
  %.126.i = phi i64 [ %36, %35 ], [ %.02543.i, %.thread.i ]
  %.1.i = phi i64 [ %.02444.i, %35 ], [ %38, %.thread.i ]
  %.not33.i = icmp ugt i64 %.1.i, %.126.i
  br i1 %.not33.i, label %hm_scan.exit, label %24

hm_scan.exit:                                     ; preds = %45, %hm_cmp.exit.thread.i, %40, %39, %4, %7
  %.0 = phi i32 [ 0, %7 ], [ 0, %4 ], [ 1, %40 ], [ 1, %39 ], [ 0, %hm_cmp.exit.thread.i ], [ 0, %45 ]
  ret i32 %.0
}